; Function Attrs: nounwind uwtable
define ptr @EVP_PKEY_get1_DH(ptr noundef captures(address_is_null) %0) local_unnamed_addr #0 {
  %2 = load i32, ptr %0, align 8, !tbaa !26
  switch i32 %2, label %evp_pkey_get0_DH_int.exit.thread [
    i32 28, label %evp_pkey_get0_DH_int.exit
    i32 920, label %evp_pkey_get0_DH_int.exit
  ]

evp_pkey_get0_DH_int.exit.thread:                 ; preds = %1
  tail call void @ERR_new() #12
  tail call void @ERR_set_debug(ptr noundef nonnull @.str, i32 noundef 986, ptr noundef nonnull @__func__.evp_pkey_get0_DH_int) #12
  tail call void (i32, i32, ptr, ...) @ERR_set_error(i32 noundef 6, i32 noundef 128, ptr noundef null) #12
  br label %6

evp_pkey_get0_DH_int.exit:                        ; preds = %1, %1
  %3 = tail call ptr @evp_pkey_get_legacy(ptr noundef nonnull %0)
  %.not = icmp eq ptr %3, null
  br i1 %.not, label %6, label %4

4:                                                ; preds = %evp_pkey_get0_DH_int.exit
  %5 = tail call i32 @DH_up_ref(ptr noundef nonnull %3) #12
  br label %6

6:                                                ; preds = %evp_pkey_get0_DH_int.exit.thread, %4, %evp_pkey_get0_DH_int.exit
  %.0.i6 = phi ptr [ null, %evp_pkey_get0_DH_int.exit.thread ], [ %3, %4 ], [ null, %evp_pkey_get0_DH_int.exit ]
  ret ptr %.0.i6
}